; Function Attrs: mustprogress uwtable
define dso_local void @_ZNK4pbrt21NormalizedFresnelBxDF8ToStringB5cxx11Ev(ptr dead_on_unwind noalias writable sret(%"class.std::__cxx11::basic_string") align 8 %0, ptr noundef nonnull align 4 dereferenceable(4) %1) local_unnamed_addr #3 align 2 personality ptr @__gxx_personality_v0 {
  %3 = getelementptr inbounds nuw i8, ptr %0, i64 16
  store ptr %3, ptr %0, align 8, !tbaa !21, !alias.scope !378
  %4 = getelementptr inbounds nuw i8, ptr %0, i64 8
  store i64 0, ptr %4, align 8, !tbaa !28, !alias.scope !378
  store i8 0, ptr %3, align 8, !tbaa !8, !alias.scope !378
  invoke void @_ZN4pbrt6detail21stringPrintfRecursiveIRKfJEEEvPNSt7__cxx1112basic_stringIcSt11char_traitsIcESaIcEEEPKcOT_DpOT0_(ptr noundef nonnull align 8 %0, ptr noundef nonnull @.str.77, ptr noundef nonnull align 4 dereferenceable(4) %1)
          to label %_ZN4pbrt12StringPrintfIJRKfEEENSt7__cxx1112basic_stringIcSt11char_traitsIcESaIcEEEPKcDpOT_.exit unwind label %5

5:                                                ; preds = %2
  %6 = landingpad { ptr, i32 }
          cleanup
  %7 = load ptr, ptr %0, align 8, !tbaa !31, !alias.scope !378
  %8 = icmp eq ptr %7, %3
  br i1 %8, label %_ZNKSt7__cxx1112basic_stringIcSt11char_traitsIcESaIcEE11_M_is_localEv.exit.thread.i.i.i, label %_ZNKSt7__cxx1112basic_stringIcSt11char_traitsIcESaIcEE11_M_is_localEv.exit.i.i.i

_ZNKSt7__cxx1112basic_stringIcSt11char_traitsIcESaIcEE11_M_is_localEv.exit.thread.i.i.i: ; preds = %5
  %9 = load i64, ptr %4, align 8, !tbaa !28, !alias.scope !378
  %10 = icmp ult i64 %9, 16
  tail call void @llvm.assume(i1 %10)
  br label %_ZNSt7__cxx1112basic_stringIcSt11char_traitsIcESaIcEED2Ev.exit.i

_ZNKSt7__cxx1112basic_stringIcSt11char_traitsIcESaIcEE11_M_is_localEv.exit.i.i.i: ; preds = %5
  %11 = load i64, ptr %3, align 8, !tbaa !8, !alias.scope !378
  %12 = add i64 %11, 1
  tail call void @_ZdlPvm(ptr noundef %7, i64 noundef %12) #30
  br label %_ZNSt7__cxx1112basic_stringIcSt11char_traitsIcESaIcEED2Ev.exit.i

_ZNSt7__cxx1112basic_stringIcSt11char_traitsIcESaIcEED2Ev.exit.i: ; preds = %_ZNKSt7__cxx1112basic_stringIcSt11char_traitsIcESaIcEE11_M_is_localEv.exit.i.i.i, %_ZNKSt7__cxx1112basic_stringIcSt11char_traitsIcESaIcEE11_M_is_localEv.exit.thread.i.i.i
  resume { ptr, i32 } %6

_ZN4pbrt12StringPrintfIJRKfEEENSt7__cxx1112basic_stringIcSt11char_traitsIcESaIcEEEPKcDpOT_.exit: ; preds = %2
  ret void
}